target datalayout = "e-m:e-p270:32:32-p271:32:32-p272:64:64-i64:64-i128:128-f80:128-n8:16:32:64-S128"
target triple = "x86_64-unknown-linux-gnu"

%"class.node::tracing::InternalTraceBuffer" = type { %"class.node::MutexBase", i8, i64, ptr, %"class.std::vector", i64, i32, i32 }
%"class.node::MutexBase" = type { %union.pthread_mutex_t }
%union.pthread_mutex_t = type { %struct.__pthread_mutex_s }
%struct.__pthread_mutex_s = type { i32, i32, i32, i32, i32, i16, i16, %struct.__pthread_internal_list }
%struct.__pthread_internal_list = type { ptr, ptr }
%"class.std::vector" = type { %"struct.std::_Vector_base" }
%"struct.std::_Vector_base" = type { %"struct.std::_Vector_base<std::unique_ptr<v8::platform::tracing::TraceBufferChunk>, std::allocator<std::unique_ptr<v8::platform::tracing::TraceBufferChunk>>>::_Vector_impl" }
%"struct.std::_Vector_base<std::unique_ptr<v8::platform::tracing::TraceBufferChunk>, std::allocator<std::unique_ptr<v8::platform::tracing::TraceBufferChunk>>>::_Vector_impl" = type { %"struct.std::_Vector_base<std::unique_ptr<v8::platform::tracing::TraceBufferChunk>, std::allocator<std::unique_ptr<v8::platform::tracing::TraceBufferChunk>>>::_Vector_impl_data" }
%"struct.std::_Vector_base<std::unique_ptr<v8::platform::tracing::TraceBufferChunk>, std::allocator<std::unique_ptr<v8::platform::tracing::TraceBufferChunk>>>::_Vector_impl_data" = type { ptr, ptr, ptr }
%"class.std::unique_ptr.2" = type { %"struct.std::__uniq_ptr_data.3" }
%"struct.std::__uniq_ptr_data.3" = type { %"class.std::__uniq_ptr_impl.4" }
%"class.std::__uniq_ptr_impl.4" = type { %"class.std::tuple.5" }
%"class.std::tuple.5" = type { %"struct.std::_Tuple_impl.6" }
%"struct.std::_Tuple_impl.6" = type { %"struct.std::_Head_base.9" }
%"struct.std::_Head_base.9" = type { ptr }
%"class.node::MutexBase<node::LibuvMutexTraits>::ScopedLock" = type { ptr }
%"class.v8::platform::tracing::TraceBufferChunk" = type <{ i64, [64 x %"class.v8::platform::tracing::TraceObject"], i32, [4 x i8] }>
%"class.v8::platform::tracing::TraceObject" = type { i32, i32, i8, ptr, ptr, ptr, i64, i64, i32, [2 x ptr], [2 x i8], [2 x %"union.v8::platform::tracing::TraceObject::ArgValue"], [2 x %"class.std::unique_ptr"], ptr, i32, i64, i64, i64, i64 }
%"union.v8::platform::tracing::TraceObject::ArgValue" = type { i64 }
%"class.std::unique_ptr" = type { %"struct.std::__uniq_ptr_data" }
%"struct.std::__uniq_ptr_data" = type { %"class.std::__uniq_ptr_impl" }
%"class.std::__uniq_ptr_impl" = type { %"class.std::tuple" }
%"class.std::tuple" = type { %"struct.std::_Tuple_impl" }
%"struct.std::_Tuple_impl" = type { %"struct.std::_Head_base.1" }
%"struct.std::_Head_base.1" = type { ptr }

; Function Attrs: mustprogress nounwind uwtable
define linkonce_odr dso_local noundef nonnull align 8 dereferenceable(8) ptr @_ZNSt10_Head_baseILm0EPN2v88platform7tracing16TraceBufferChunkELb0EE7_M_headERKS5_(ptr noundef nonnull align 8 dereferenceable(8) %__b) #0 comdat align 2 {
entry:
  %__b.addr = alloca ptr, align 8
  store ptr %__b, ptr %__b.addr, align 8
  %0 = load ptr, ptr %__b.addr, align 8
  %_M_head_impl = getelementptr inbounds %"struct.std::_Head_base.9", ptr %0, i32 0, i32 0
  ret ptr %_M_head_impl
}

; Function Attrs: mustprogress nounwind uwtable
define linkonce_odr dso_local noundef nonnull align 8 dereferenceable(8) ptr @_ZNSt11_Tuple_implILm0EJPN2v88platform7tracing16TraceBufferChunkESt14default_deleteIS3_EEE7_M_headERKS7_(ptr noundef nonnull align 8 dereferenceable(8) %__t) #0 comdat align 2 {
entry:
  %__t.addr = alloca ptr, align 8
  store ptr %__t, ptr %__t.addr, align 8
  %0 = load ptr, ptr %__t.addr, align 8
  %call = call noundef nonnull align 8 dereferenceable(8) ptr @_ZNSt10_Head_baseILm0EPN2v88platform7tracing16TraceBufferChunkELb0EE7_M_headERKS5_(ptr noundef nonnull align 8 dereferenceable(8) %0) #10
  ret ptr %call
}

; Function Attrs: mustprogress nounwind uwtable
define linkonce_odr dso_local noundef nonnull align 8 dereferenceable(8) ptr @_ZSt12__get_helperILm0EPN2v88platform7tracing16TraceBufferChunkEJSt14default_deleteIS3_EEERKT0_RKSt11_Tuple_implIXT_EJS7_DpT1_EE(ptr noundef nonnull align 8 dereferenceable(8) %__t) #0 comdat {
entry:
  %__t.addr = alloca ptr, align 8
  store ptr %__t, ptr %__t.addr, align 8
  %0 = load ptr, ptr %__t.addr, align 8
  %call = call noundef nonnull align 8 dereferenceable(8) ptr @_ZNSt11_Tuple_implILm0EJPN2v88platform7tracing16TraceBufferChunkESt14default_deleteIS3_EEE7_M_headERKS7_(ptr noundef nonnull align 8 dereferenceable(8) %0) #10
  ret ptr %call
}

; Function Attrs: mustprogress nounwind uwtable
define linkonce_odr dso_local noundef nonnull align 8 dereferenceable(8) ptr @_ZSt3getILm0EJPN2v88platform7tracing16TraceBufferChunkESt14default_deleteIS3_EEERKNSt13tuple_elementIXT_ESt5tupleIJDpT0_EEE4typeERKSB_(ptr noundef nonnull align 8 dereferenceable(8) %__t) #0 comdat {
entry:
  %__t.addr = alloca ptr, align 8
  store ptr %__t, ptr %__t.addr, align 8
  %0 = load ptr, ptr %__t.addr, align 8
  %call = call noundef nonnull align 8 dereferenceable(8) ptr @_ZSt12__get_helperILm0EPN2v88platform7tracing16TraceBufferChunkEJSt14default_deleteIS3_EEERKT0_RKSt11_Tuple_implIXT_EJS7_DpT1_EE(ptr noundef nonnull align 8 dereferenceable(8) %0) #10
  ret ptr %call
}

; Function Attrs: mustprogress nounwind uwtable
define linkonce_odr dso_local noundef ptr @_ZNKSt15__uniq_ptr_implIN2v88platform7tracing16TraceBufferChunkESt14default_deleteIS3_EE6_M_ptrEv(ptr noundef nonnull align 8 dereferenceable(8) %this) #0 comdat align 2 {
entry:
  %this.addr = alloca ptr, align 8
  store ptr %this, ptr %this.addr, align 8
  %this1 = load ptr, ptr %this.addr, align 8
  %_M_t = getelementptr inbounds %"class.std::__uniq_ptr_impl.4", ptr %this1, i32 0, i32 0
  %call = call noundef nonnull align 8 dereferenceable(8) ptr @_ZSt3getILm0EJPN2v88platform7tracing16TraceBufferChunkESt14default_deleteIS3_EEERKNSt13tuple_elementIXT_ESt5tupleIJDpT0_EEE4typeERKSB_(ptr noundef nonnull align 8 dereferenceable(8) %_M_t) #10
  %0 = load ptr, ptr %call, align 8
  ret ptr %0
}

; Function Attrs: mustprogress nounwind uwtable
define linkonce_odr dso_local void @_ZN4node16LibuvMutexTraits12mutex_unlockEP15pthread_mutex_t(ptr noundef %mutex) #0 comdat align 2 {
entry:
  %mutex.addr = alloca ptr, align 8
  store ptr %mutex, ptr %mutex.addr, align 8
  %0 = load ptr, ptr %mutex.addr, align 8
  call void @uv_mutex_unlock(ptr noundef %0)
  ret void
}

; Function Attrs: mustprogress nounwind uwtable
define linkonce_odr dso_local noundef ptr @_ZNKSt10unique_ptrIN2v88platform7tracing16TraceBufferChunkESt14default_deleteIS3_EE3getEv(ptr noundef nonnull align 8 dereferenceable(8) %this) #0 comdat align 2 {
entry:
  %this.addr = alloca ptr, align 8
  store ptr %this, ptr %this.addr, align 8
  %this1 = load ptr, ptr %this.addr, align 8
  %_M_t = getelementptr inbounds %"class.std::unique_ptr.2", ptr %this1, i32 0, i32 0
  %call = call noundef ptr @_ZNKSt15__uniq_ptr_implIN2v88platform7tracing16TraceBufferChunkESt14default_deleteIS3_EE6_M_ptrEv(ptr noundef nonnull align 8 dereferenceable(8) %_M_t) #10
  ret ptr %call
}

; Function Attrs: mustprogress nounwind uwtable
define linkonce_odr dso_local void @_ZN4node16LibuvMutexTraits10mutex_lockEP15pthread_mutex_t(ptr noundef %mutex) #0 comdat align 2 {
entry:
  %mutex.addr = alloca ptr, align 8
  store ptr %mutex, ptr %mutex.addr, align 8
  %0 = load ptr, ptr %mutex.addr, align 8
  call void @uv_mutex_lock(ptr noundef %0)
  ret void
}

; Function Attrs: mustprogress nounwind uwtable
define linkonce_odr dso_local void @_ZN4node9MutexBaseINS_16LibuvMutexTraitsEE10ScopedLockD2Ev(ptr noundef nonnull align 8 dereferenceable(8) %this) unnamed_addr #0 comdat align 2 {
entry:
  %this.addr = alloca ptr, align 8
  store ptr %this, ptr %this.addr, align 8
  %this1 = load ptr, ptr %this.addr, align 8
  %mutex_ = getelementptr inbounds %"class.node::MutexBase<node::LibuvMutexTraits>::ScopedLock", ptr %this1, i32 0, i32 0
  %0 = load ptr, ptr %mutex_, align 8
  %mutex_2 = getelementptr inbounds %"class.node::MutexBase", ptr %0, i32 0, i32 0
  call void @_ZN4node16LibuvMutexTraits12mutex_unlockEP15pthread_mutex_t(ptr noundef %mutex_2)
  ret void
}

; Function Attrs: mustprogress nounwind uwtable
define linkonce_odr dso_local noundef ptr @_ZNK2v88platform7tracing11TraceObject4nameEv(ptr noundef nonnull align 8 dereferenceable(168) %this) #0 comdat align 2 {
entry:
  %this.addr = alloca ptr, align 8
  store ptr %this, ptr %this.addr, align 8
  %this1 = load ptr, ptr %this.addr, align 8
  %name_ = getelementptr inbounds %"class.v8::platform::tracing::TraceObject", ptr %this1, i32 0, i32 3
  %0 = load ptr, ptr %name_, align 8
  ret ptr %0
}

; Function Attrs: mustprogress nounwind uwtable
define linkonce_odr dso_local noundef ptr @_ZN2v88platform7tracing16TraceBufferChunk10GetEventAtEm(ptr noundef nonnull align 8 dereferenceable(10764) %this, i64 noundef %index) #0 comdat align 2 {
entry:
  %this.addr = alloca ptr, align 8
  %index.addr = alloca i64, align 8
  store ptr %this, ptr %this.addr, align 8
  store i64 %index, ptr %index.addr, align 8
  %this1 = load ptr, ptr %this.addr, align 8
  %chunk_ = getelementptr inbounds %"class.v8::platform::tracing::TraceBufferChunk", ptr %this1, i32 0, i32 1
  %0 = load i64, ptr %index.addr, align 8
  %arrayidx = getelementptr inbounds [64 x %"class.v8::platform::tracing::TraceObject"], ptr %chunk_, i64 0, i64 %0
  ret ptr %arrayidx
}

; Function Attrs: mustprogress nounwind uwtable
define linkonce_odr dso_local noundef i64 @_ZNK2v88platform7tracing16TraceBufferChunk4sizeEv(ptr noundef nonnull align 8 dereferenceable(10764) %this) #0 comdat align 2 {
entry:
  %this.addr = alloca ptr, align 8
  store ptr %this, ptr %this.addr, align 8
  %this1 = load ptr, ptr %this.addr, align 8
  %next_free_ = getelementptr inbounds %"class.v8::platform::tracing::TraceBufferChunk", ptr %this1, i32 0, i32 0
  %0 = load i64, ptr %next_free_, align 8
  ret i64 %0
}

; Function Attrs: mustprogress nounwind uwtable
define linkonce_odr dso_local noundef ptr @_ZNKSt10unique_ptrIN2v88platform7tracing16TraceBufferChunkESt14default_deleteIS3_EEptEv(ptr noundef nonnull align 8 dereferenceable(8) %this) #0 comdat align 2 {
entry:
  %this.addr = alloca ptr, align 8
  store ptr %this, ptr %this.addr, align 8
  %this1 = load ptr, ptr %this.addr, align 8
  %call = call noundef ptr @_ZNKSt10unique_ptrIN2v88platform7tracing16TraceBufferChunkESt14default_deleteIS3_EE3getEv(ptr noundef nonnull align 8 dereferenceable(8) %this1) #10
  ret ptr %call
}

; Function Attrs: mustprogress nounwind uwtable
define linkonce_odr dso_local noundef nonnull align 8 dereferenceable(8) ptr @_ZNSt6vectorISt10unique_ptrIN2v88platform7tracing16TraceBufferChunkESt14default_deleteIS4_EESaIS7_EEixEm(ptr noundef nonnull align 8 dereferenceable(24) %this, i64 noundef %__n) #0 comdat align 2 {
entry:
  %this.addr = alloca ptr, align 8
  %__n.addr = alloca i64, align 8
  store ptr %this, ptr %this.addr, align 8
  store i64 %__n, ptr %__n.addr, align 8
  %this1 = load ptr, ptr %this.addr, align 8
  %_M_impl = getelementptr inbounds %"struct.std::_Vector_base", ptr %this1, i32 0, i32 0
  %_M_start = getelementptr inbounds %"struct.std::_Vector_base<std::unique_ptr<v8::platform::tracing::TraceBufferChunk>, std::allocator<std::unique_ptr<v8::platform::tracing::TraceBufferChunk>>>::_Vector_impl_data", ptr %_M_impl, i32 0, i32 0
  %0 = load ptr, ptr %_M_start, align 8
  %1 = load i64, ptr %__n.addr, align 8
  %add.ptr = getelementptr inbounds %"class.std::unique_ptr.2", ptr %0, i64 %1
  ret ptr %add.ptr
}

; Function Attrs: mustprogress nounwind uwtable
define linkonce_odr dso_local void @_ZN4node9MutexBaseINS_16LibuvMutexTraitsEE10ScopedLockC2ERKS2_(ptr noundef nonnull align 8 dereferenceable(8) %this, ptr noundef nonnull align 8 dereferenceable(40) %mutex) unnamed_addr #0 comdat align 2 {
entry:
  %this.addr = alloca ptr, align 8
  %mutex.addr = alloca ptr, align 8
  store ptr %this, ptr %this.addr, align 8
  store ptr %mutex, ptr %mutex.addr, align 8
  %this1 = load ptr, ptr %this.addr, align 8
  %mutex_ = getelementptr inbounds %"class.node::MutexBase<node::LibuvMutexTraits>::ScopedLock", ptr %this1, i32 0, i32 0
  %0 = load ptr, ptr %mutex.addr, align 8
  store ptr %0, ptr %mutex_, align 8
  %mutex_2 = getelementptr inbounds %"class.node::MutexBase<node::LibuvMutexTraits>::ScopedLock", ptr %this1, i32 0, i32 0
  %1 = load ptr, ptr %mutex_2, align 8
  %mutex_3 = getelementptr inbounds %"class.node::MutexBase", ptr %1, i32 0, i32 0
  call void @_ZN4node16LibuvMutexTraits10mutex_lockEP15pthread_mutex_t(ptr noundef %mutex_3)
  ret void
}

; Function Attrs: mustprogress nounwind uwtable
define dso_local void @_ZN4node7tracing19InternalTraceBuffer5FlushEb(ptr noundef nonnull align 8 dereferenceable(104) %this, i1 noundef zeroext %blocking) #0 align 2 {
entry:
  %this.addr = alloca ptr, align 8
  %blocking.addr = alloca i8, align 1
  %scoped_lock = alloca %"class.node::MutexBase<node::LibuvMutexTraits>::ScopedLock", align 8
  %i = alloca i64, align 8
  %chunk = alloca ptr, align 8
  %j = alloca i64, align 8
  %trace_event = alloca ptr, align 8
  store ptr %this, ptr %this.addr, align 8
  %frombool = zext i1 %blocking to i8
  store i8 %frombool, ptr %blocking.addr, align 1
  %this1 = load ptr, ptr %this.addr, align 8
  %mutex_ = getelementptr inbounds %"class.node::tracing::InternalTraceBuffer", ptr %this1, i32 0, i32 0
  call void @_ZN4node9MutexBaseINS_16LibuvMutexTraitsEE10ScopedLockC2ERKS2_(ptr noundef nonnull align 8 dereferenceable(8) %scoped_lock, ptr noundef nonnull align 8 dereferenceable(40) %mutex_)
  %total_chunks_ = getelementptr inbounds %"class.node::tracing::InternalTraceBuffer", ptr %this1, i32 0, i32 5
  %0 = load i64, ptr %total_chunks_, align 8
  %cmp = icmp ugt i64 %0, 0
  br i1 %cmp, label %if.then, label %if.end18

if.then:                                          ; preds = %entry
  %flushing_ = getelementptr inbounds %"class.node::tracing::InternalTraceBuffer", ptr %this1, i32 0, i32 1
  store i8 1, ptr %flushing_, align 8
  store i64 0, ptr %i, align 8
  br label %for.cond

for.cond:                                         ; preds = %for.inc13, %if.then
  %1 = load i64, ptr %i, align 8
  %total_chunks_2 = getelementptr inbounds %"class.node::tracing::InternalTraceBuffer", ptr %this1, i32 0, i32 5
  %2 = load i64, ptr %total_chunks_2, align 8
  %cmp3 = icmp ult i64 %1, %2
  br i1 %cmp3, label %for.body, label %for.end15

for.body:                                         ; preds = %for.cond
  %chunks_ = getelementptr inbounds %"class.node::tracing::InternalTraceBuffer", ptr %this1, i32 0, i32 4
  %3 = load i64, ptr %i, align 8
  %call = call noundef nonnull align 8 dereferenceable(8) ptr @_ZNSt6vectorISt10unique_ptrIN2v88platform7tracing16TraceBufferChunkESt14default_deleteIS4_EESaIS7_EEixEm(ptr noundef nonnull align 8 dereferenceable(24) %chunks_, i64 noundef %3) #10
  store ptr %call, ptr %chunk, align 8
  store i64 0, ptr %j, align 8
  br label %for.cond4

for.cond4:                                        ; preds = %for.inc, %for.body
  %4 = load i64, ptr %j, align 8
  %5 = load ptr, ptr %chunk, align 8
  %call5 = call noundef ptr @_ZNKSt10unique_ptrIN2v88platform7tracing16TraceBufferChunkESt14default_deleteIS3_EEptEv(ptr noundef nonnull align 8 dereferenceable(8) %5) #10
  %call6 = call noundef i64 @_ZNK2v88platform7tracing16TraceBufferChunk4sizeEv(ptr noundef nonnull align 8 dereferenceable(10764) %call5)
  %cmp7 = icmp ult i64 %4, %call6
  br i1 %cmp7, label %for.body8, label %for.end

for.body8:                                        ; preds = %for.cond4
  %6 = load ptr, ptr %chunk, align 8
  %call9 = call noundef ptr @_ZNKSt10unique_ptrIN2v88platform7tracing16TraceBufferChunkESt14default_deleteIS3_EEptEv(ptr noundef nonnull align 8 dereferenceable(8) %6) #10
  %7 = load i64, ptr %j, align 8
  %call10 = call noundef ptr @_ZN2v88platform7tracing16TraceBufferChunk10GetEventAtEm(ptr noundef nonnull align 8 dereferenceable(10764) %call9, i64 noundef %7)
  store ptr %call10, ptr %trace_event, align 8
  %8 = load ptr, ptr %trace_event, align 8
  %call11 = call noundef ptr @_ZNK2v88platform7tracing11TraceObject4nameEv(ptr noundef nonnull align 8 dereferenceable(168) %8)
  %tobool = icmp ne ptr %call11, null
  br i1 %tobool, label %if.then12, label %if.end

if.then12:                                        ; preds = %for.body8
  %agent_ = getelementptr inbounds %"class.node::tracing::InternalTraceBuffer", ptr %this1, i32 0, i32 3
  %9 = load ptr, ptr %agent_, align 8
  %10 = load ptr, ptr %trace_event, align 8
  call void @_ZN4node7tracing5Agent16AppendTraceEventEPN2v88platform7tracing11TraceObjectE(ptr noundef nonnull align 8 dereferenceable(1312) %9, ptr noundef %10)
  br label %if.end

if.end:                                           ; preds = %if.then12, %for.body8
  br label %for.inc

for.inc:                                          ; preds = %if.end
  %11 = load i64, ptr %j, align 8
  %inc = add i64 %11, 1
  store i64 %inc, ptr %j, align 8
  br label %for.cond4, !llvm.loop !5

for.end:                                          ; preds = %for.cond4
  br label %for.inc13

for.inc13:                                        ; preds = %for.end
  %12 = load i64, ptr %i, align 8
  %inc14 = add i64 %12, 1
  store i64 %inc14, ptr %i, align 8
  br label %for.cond, !llvm.loop !7

for.end15:                                        ; preds = %for.cond
  %total_chunks_16 = getelementptr inbounds %"class.node::tracing::InternalTraceBuffer", ptr %this1, i32 0, i32 5
  store i64 0, ptr %total_chunks_16, align 8
  %flushing_17 = getelementptr inbounds %"class.node::tracing::InternalTraceBuffer", ptr %this1, i32 0, i32 1
  store i8 0, ptr %flushing_17, align 8
  br label %if.end18

if.end18:                                         ; preds = %for.end15, %entry
  call void @_ZN4node9MutexBaseINS_16LibuvMutexTraitsEE10ScopedLockD2Ev(ptr noundef nonnull align 8 dereferenceable(8) %scoped_lock) #10
  %agent_19 = getelementptr inbounds %"class.node::tracing::InternalTraceBuffer", ptr %this1, i32 0, i32 3
  %13 = load ptr, ptr %agent_19, align 8
  %14 = load i8, ptr %blocking.addr, align 1
  %tobool20 = trunc i8 %14 to i1
  call void @_ZN4node7tracing5Agent5FlushEb(ptr noundef nonnull align 8 dereferenceable(1312) %13, i1 noundef zeroext %tobool20)
  ret void
}