; Function Attrs: mustprogress nounwind uwtable
define dso_local void @_ZN4node7tracing19InternalTraceBuffer5FlushEb(ptr noundef nonnull align 8 dereferenceable(104) %this, i1 noundef zeroext %blocking) local_unnamed_addr #0 align 2 {
entry:
  tail call void @uv_mutex_lock(ptr noundef nonnull %this) #13
  %total_chunks_ = getelementptr inbounds i8, ptr %this, i64 88
  %0 = load i64, ptr %total_chunks_, align 8
  %cmp.not = icmp eq i64 %0, 0
  br i1 %cmp.not, label %if.end18, label %for.body.lr.ph

for.body.lr.ph:                                   ; preds = %entry
  %flushing_ = getelementptr inbounds i8, ptr %this, i64 40
  store i8 1, ptr %flushing_, align 8
  %chunks_ = getelementptr inbounds i8, ptr %this, i64 64
  %agent_ = getelementptr inbounds i8, ptr %this, i64 56
  br label %for.body

for.body:                                         ; preds = %for.body.lr.ph, %for.inc13
  %1 = phi i64 [ %0, %for.body.lr.ph ], [ %11, %for.inc13 ]
  %i.010 = phi i64 [ 0, %for.body.lr.ph ], [ %inc14, %for.inc13 ]
  %2 = load ptr, ptr %chunks_, align 8
  %add.ptr.i = getelementptr inbounds %"class.std::unique_ptr.2", ptr %2, i64 %i.010
  %3 = load ptr, ptr %add.ptr.i, align 8
  %4 = load i64, ptr %3, align 8
  %cmp77.not = icmp eq i64 %4, 0
  br i1 %cmp77.not, label %for.inc13, label %for.body8

for.body8:                                        ; preds = %for.body, %for.inc
  %5 = phi i64 [ %9, %for.inc ], [ %4, %for.body ]
  %6 = phi ptr [ %10, %for.inc ], [ %3, %for.body ]
  %j.08 = phi i64 [ %inc, %for.inc ], [ 0, %for.body ]
  %chunk_.i = getelementptr inbounds i8, ptr %6, i64 8
  %arrayidx.i = getelementptr inbounds [64 x %"class.v8::platform::tracing::TraceObject"], ptr %chunk_.i, i64 0, i64 %j.08
  %name_.i = getelementptr inbounds i8, ptr %arrayidx.i, i64 16
  %7 = load ptr, ptr %name_.i, align 8
  %tobool.not = icmp eq ptr %7, null
  br i1 %tobool.not, label %for.inc, label %if.then12

if.then12:                                        ; preds = %for.body8
  %8 = load ptr, ptr %agent_, align 8
  tail call void @_ZN4node7tracing5Agent16AppendTraceEventEPN2v88platform7tracing11TraceObjectE(ptr noundef nonnull align 8 dereferenceable(1312) %8, ptr noundef nonnull %arrayidx.i) #13
  %.pre = load ptr, ptr %add.ptr.i, align 8
  %.pre11 = load i64, ptr %.pre, align 8
  br label %for.inc

for.inc:                                          ; preds = %for.body8, %if.then12
  %9 = phi i64 [ %5, %for.body8 ], [ %.pre11, %if.then12 ]
  %10 = phi ptr [ %6, %for.body8 ], [ %.pre, %if.then12 ]
  %inc = add nuw i64 %j.08, 1
  %cmp7 = icmp ult i64 %inc, %9
  br i1 %cmp7, label %for.body8, label %for.inc13.loopexit, !llvm.loop !16

for.inc13.loopexit:                               ; preds = %for.inc
  %.pre12 = load i64, ptr %total_chunks_, align 8
  br label %for.inc13

for.inc13:                                        ; preds = %for.inc13.loopexit, %for.body
  %11 = phi i64 [ %.pre12, %for.inc13.loopexit ], [ %1, %for.body ]
  %inc14 = add nuw i64 %i.010, 1
  %cmp3 = icmp ult i64 %inc14, %11
  br i1 %cmp3, label %for.body, label %for.end15, !llvm.loop !17

for.end15:                                        ; preds = %for.inc13
  store i64 0, ptr %total_chunks_, align 8
  store i8 0, ptr %flushing_, align 8
  br label %if.end18

if.end18:                                         ; preds = %for.end15, %entry
  tail call void @uv_mutex_unlock(ptr noundef nonnull %this) #13
  %agent_19 = getelementptr inbounds i8, ptr %this, i64 56
  %12 = load ptr, ptr %agent_19, align 8
  tail call void @_ZN4node7tracing5Agent5FlushEb(ptr noundef nonnull align 8 dereferenceable(1312) %12, i1 noundef zeroext %blocking) #13
  ret void
}